Certificate:
    Data:
        Version: 3 (0x2)
        Serial Number: 3 (0x3)
    Signature Algorithm: sha256WithRSAEncryption
        Issuer: CN=Exitia, ST=Belgrade, C=SE/emailAddress=lukic.sasa11@gmail.com, O=Exitia, OU=Exitia
        Validity
            Not Before: Nov 18 23:02:57 2017 GMT
            Not After : Nov 17 23:02:57 2022 GMT
        Subject: CN=localhost, ST=Belgrade, C=SE/emailAddress=lukic.sasa11@gmail.com, O=Exitia, OU=Exitia
        Subject Public Key Info:
            Public Key Algorithm: rsaEncryption
                Public-Key: (2048 bit)
                Modulus:
                    00:e0:03:4c:b1:bd:89:d9:24:08:af:c5:c7:03:04:
                    7d:bb:01:33:c1:d8:03:7a:d9:7a:13:ca:8c:de:cf:
                    f6:ed:3b:db:84:97:8c:91:3b:51:5b:f7:c9:5b:18:
                    05:26:57:e0:e3:05:94:50:52:5c:02:5d:bb:c1:f9:
                    b4:d5:ee:c1:ce:66:03:60:09:5a:91:5e:2c:60:e5:
                    77:c1:e8:3d:74:8b:85:80:a4:1d:b1:7e:4a:39:49:
                    be:6a:87:f9:d6:de:60:f2:7b:27:1e:f2:d5:56:fc:
                    da:56:db:9c:c0:3c:0c:2c:0a:69:17:f2:17:dd:55:
                    5b:e2:51:d5:a4:70:92:54:5e:d4:69:bd:3a:48:6f:
                    e3:cb:43:7a:c0:2c:59:21:98:0b:17:7c:9f:67:5e:
                    8d:38:1a:55:9f:d7:16:74:a0:d1:e0:69:20:34:2d:
                    9b:2f:a3:91:00:51:5a:57:ac:1c:eb:dc:a5:a6:48:
                    20:be:c8:9a:4d:05:24:e3:d8:ad:29:3b:4a:10:2b:
                    ac:37:cf:c5:9a:33:27:a8:6f:3e:a1:44:09:f9:ee:
                    e9:d7:4a:15:21:c8:e0:56:bb:d1:91:9d:91:57:eb:
                    10:10:13:af:98:c3:c7:16:f9:b2:35:0d:0b:29:ab:
                    e6:bb:cf:c0:45:44:5b:df:3e:80:6e:db:dd:ea:22:
                    a0:3f
                Exponent: 65537 (0x10001)
        X509v3 extensions:
            X509v3 Basic Constraints: 
                CA:FALSE
            X509v3 Key Usage: 
                Digital Signature, Non Repudiation, Key Encipherment
            X509v3 Subject Alternative Name: 
                DNS:localhost, DNS:mypc.mycompany.com
    Signature Algorithm: sha256WithRSAEncryption
         75:78:25:d2:b8:cc:fb:23:81:f2:d5:18:ac:a5:9e:11:74:ff:
         85:a2:e4:a6:54:f2:2b:82:ae:56:eb:9b:6a:d6:f3:54:fc:4f:
         06:f1:18:c7:a5:91:1c:b5:a5:77:e9:98:52:0f:43:db:16:95:
         a2:4c:4f:54:aa:91:30:62:45:9c:2e:4f:0d:77:ae:64:4e:e8:
         8c:17:56:55:10:f9:81:59:76:86:fb:5f:7d:38:55:95:4c:d6:
         fd:ed:b7:9b:b9:f3:16:bc:d3:cc:c0:a0:5d:5a:a8:1f:ae:08:
         f5:5c:db:cc:0b:86:87:a3:24:cb:21:3e:a2:42:a8:7a:f8:0f:
         b9:5b:7f:99:b6:c5:33:2a:04:04:37:ec:0f:d6:f2:44:94:43:
         fd:6c:dc:90:7f:f1:c2:98:96:7f:ba:5f:3a:28:4d:ff:a3:d8:
         b8:7e:08:ec:1f:5b:83:04:4f:20:82:fd:ed:c3:a6:71:28:c0:
         5b:e4:a5:3e:05:d8:6c:e5:37:44:d6:37:b7:ec:73:3f:7a:ff:
         7a:03:3b:ea:56:8f:67:9c:24:0a:4c:90:a0:74:9b:4f:b1:cc:
         0e:51:2a:36:90:6c:03:e3:85:0b:98:f1:4d:a6:61:f0:85:77:
         6d:1e:76:87:7e:69:4b:30:86:8d:85:22:81:27:5d:80:fd:44:
         73:72:94:e3
-----BEGIN CERTIFICATE-----
MIIDtjCCAp6gAwIBAgIBAzANBgkqhkiG9w0BAQsFADB6MQ8wDQYDVQQDDAZFeGl0
aWExETAPBgNVBAgMCEJlbGdyYWRlMQswCQYDVQQGEwJTRTElMCMGCSqGSIb3DQEJ
ARYWbHVraWMuc2FzYTExQGdtYWlsLmNvbTEPMA0GA1UECgwGRXhpdGlhMQ8wDQYD
VQQLDAZFeGl0aWEwHhcNMTcxMTE4MjMwMjU3WhcNMjIxMTE3MjMwMjU3WjB9MRIw
EAYDVQQDDAlsb2NhbGhvc3QxETAPBgNVBAgMCEJlbGdyYWRlMQswCQYDVQQGEwJT
RTElMCMGCSqGSIb3DQEJARYWbHVraWMuc2FzYTExQGdtYWlsLmNvbTEPMA0GA1UE
CgwGRXhpdGlhMQ8wDQYDVQQLDAZFeGl0aWEwggEiMA0GCSqGSIb3DQEBAQUAA4IB
DwAwggEKAoIBAQDgA0yxvYnZJAivxccDBH27ATPB2AN62XoTyozez/btO9uEl4yR
O1Fb98lbGAUmV+DjBZRQUlwCXbvB+bTV7sHOZgNgCVqRXixg5XfB6D10i4WApB2x
fko5Sb5qh/nW3mDyeyce8tVW/NpW25zAPAwsCmkX8hfdVVviUdWkcJJUXtRpvTpI
b+PLQ3rALFkhmAsXfJ9nXo04GlWf1xZ0oNHgaSA0LZsvo5EAUVpXrBzr3KWmSCC+
yJpNBSTj2K0pO0oQK6w3z8WaMyeobz6hRAn57unXShUhyOBWu9GRnZFX6xAQE6+Y
w8cW+bI1DQspq+a7z8BFRFvfPoBu293qIqA/AgMBAAGjRDBCMAkGA1UdEwQCMAAw
CwYDVR0PBAQDAgXgMCgGA1UdEQQhMB+CCWxvY2FsaG9zdIISbXlwYy5teWNvbXBh
bnkuY29tMA0GCSqGSIb3DQEBCwUAA4IBAQB1eCXSuMz7I4Hy1RispZ4RdP+FouSm
VPIrgq5W65tq1vNU/E8G8RjHpZEctaV36ZhSD0PbFpWiTE9UqpEwYkWcLk8Nd65k
TuiMF1ZVEPmBWXaG+199OFWVTNb97bebufMWvNPMwKBdWqgfrgj1XNvMC4aHoyTL
IT6iQqh6+A+5W3+ZtsUzKgQEN+wP1vJElEP9bNyQf/HCmJZ/ul86KE3/o9i4fgjs
H1uDBE8ggv3tw6ZxKMBb5KU+Bdhs5TdE1je37HM/ev96AzvqVo9nnCQKTJCgdJtP
scwOUSo2kGwD44ULmPFNpmHwhXdtHnaHfmlLMIaNhSKBJ12A/URzcpTj
-----END CERTIFICATE-----
